target datalayout = "e-m:e-p270:32:32-p271:32:32-p272:64:64-i64:64-i128:128-f80:128-n8:16:32:64-S128"
target triple = "x86_64-pc-linux-gnu"

%struct.CodedBitstreamContext = type { ptr, ptr, ptr, ptr, i32, i32, i32, ptr, ptr, ptr, ptr, i64 }
%struct.CodedBitstreamAV1Context = type { ptr, ptr, ptr, i32, ptr, ptr, i64, i32, i32, i32, i32, i32, i32, i32, i32, i32, i32, i32, i32, i32, i32, i32, i32, [8 x i32], [8 x i32], [8 x %struct.AV1ReferenceFrameState], i32, i32, [8 x i8], [2 x i8], [8 x [8 x i8]], [8 x [8 x i16]] }
%struct.AV1ReferenceFrameState = type { i32, i32, i32, i32, i32, i32, i32, i32, i32, i32, i32, i32, [8 x i32], [8 x i8], [2 x i8], [8 x [8 x i8]], [8 x [8 x i16]] }
%struct.AV1RawFrameHeader = type { i8, i8, i32, i32, i8, i8, i8, i8, i8, i8, i8, i32, i8, i8, i8, [32 x i32], i8, i16, i16, i8, i8, i8, i16, i16, [7 x i8], i8, i8, [8 x i8], i8, i8, i8, [7 x i8], [7 x i32], i8, i8, i8, i8, i8, i8, i8, i8, i8, [64 x i8], [64 x i8], [64 x i8], [64 x i8], i16, i8, i16, i16, i8, i8, i8, i8, i8, i8, i8, i8, i8, i8, i8, i8, i8, i8, i8, [8 x [8 x i8]], [8 x [8 x i16]], i8, i8, i8, i8, i8, [4 x i8], i8, i8, i8, [8 x i8], [8 x i8], [2 x i8], [2 x i8], i8, i8, [8 x i8], [8 x i8], [8 x i8], [8 x i8], [3 x i8], i8, i8, i8, i8, i8, i8, i8, [8 x i8], [8 x i8], [8 x i8], [8 x [6 x i32]], %struct.AV1RawFilmGrainParams }
%struct.AV1RawFilmGrainParams = type { i8, i16, i8, i8, i8, [14 x i8], [14 x i8], i8, i8, [10 x i8], [10 x i8], i8, [10 x i8], [10 x i8], i8, i8, [24 x i8], [25 x i8], [25 x i8], i8, i8, i8, i8, i16, i8, i8, i16, i8, i8 }

@.str.211 = private unnamed_addr constant [8 x i8] c"tx_mode\00", align 1
@.str.317 = private unnamed_addr constant [59 x i8] c"%s does not match inferred value: %ld, but should be %ld.\0A\00", align 1

; Function Attrs: nounwind uwtable
define internal i32 @cbs_av1_write_read_tx_mode(ptr noundef %0, ptr noundef %1, ptr noundef %2) #0 {
  %4 = alloca i32, align 4
  %5 = alloca ptr, align 8
  %6 = alloca ptr, align 8
  %7 = alloca ptr, align 8
  %8 = alloca ptr, align 8
  %9 = alloca i32, align 4
  %10 = alloca i32, align 4
  store ptr %0, ptr %5, align 8, !tbaa !4
  store ptr %1, ptr %6, align 8, !tbaa !71
  store ptr %2, ptr %7, align 8, !tbaa !159
  call void @llvm.lifetime.start.p0(i64 8, ptr %8) #8
  %11 = load ptr, ptr %5, align 8, !tbaa !4
  %12 = getelementptr inbounds nuw %struct.CodedBitstreamContext, ptr %11, i32 0, i32 2
  %13 = load ptr, ptr %12, align 8, !tbaa !36
  store ptr %13, ptr %8, align 8, !tbaa !37
  call void @llvm.lifetime.start.p0(i64 4, ptr %9) #8
  %14 = load ptr, ptr %8, align 8, !tbaa !37
  %15 = getelementptr inbounds nuw %struct.CodedBitstreamAV1Context, ptr %14, i32 0, i32 18
  %16 = load i32, ptr %15, align 4, !tbaa !279
  %17 = icmp ne i32 %16, 0
  br i1 %17, label %18, label %36

18:                                               ; preds = %3
  br label %19

19:                                               ; preds = %18
  %20 = load ptr, ptr %7, align 8, !tbaa !159
  %21 = getelementptr inbounds nuw %struct.AV1RawFrameHeader, ptr %20, i32 0, i32 89
  %22 = load i8, ptr %21, align 1, !tbaa !359
  %23 = zext i8 %22 to i32
  %24 = icmp ne i32 %23, 0
  br i1 %24, label %25, label %33

25:                                               ; preds = %19
  %26 = load ptr, ptr %5, align 8, !tbaa !4
  %27 = getelementptr inbounds nuw %struct.CodedBitstreamContext, ptr %26, i32 0, i32 0
  %28 = load ptr, ptr %27, align 8, !tbaa !26
  %29 = load ptr, ptr %7, align 8, !tbaa !159
  %30 = getelementptr inbounds nuw %struct.AV1RawFrameHeader, ptr %29, i32 0, i32 89
  %31 = load i8, ptr %30, align 1, !tbaa !359
  %32 = zext i8 %31 to i64
  call void (ptr, i32, ptr, ...) @av_log(ptr noundef %28, i32 noundef 16, ptr noundef @.str.317, ptr noundef @.str.211, i64 noundef %32, i64 noundef 0)
  store i32 -1094995529, ptr %4, align 4
  store i32 1, ptr %10, align 4
  br label %56

33:                                               ; preds = %19
  br label %34

34:                                               ; preds = %33
  br label %35

35:                                               ; preds = %34
  br label %55

36:                                               ; preds = %3
  br label %37

37:                                               ; preds = %36
  br label %38

38:                                               ; preds = %37
  %39 = load ptr, ptr %5, align 8, !tbaa !4
  %40 = load ptr, ptr %6, align 8, !tbaa !71
  %41 = load ptr, ptr %7, align 8, !tbaa !159
  %42 = getelementptr inbounds nuw %struct.AV1RawFrameHeader, ptr %41, i32 0, i32 89
  %43 = load i8, ptr %42, align 1, !tbaa !359
  %44 = zext i8 %43 to i32
  %45 = call i32 @cbs_av1_write_increment(ptr noundef %39, ptr noundef %40, i32 noundef 1, i32 noundef 2, ptr noundef @.str.211, i32 noundef %44)
  store i32 %45, ptr %9, align 4, !tbaa !11
  %46 = load i32, ptr %9, align 4, !tbaa !11
  %47 = icmp slt i32 %46, 0
  br i1 %47, label %48, label %50

48:                                               ; preds = %38
  %49 = load i32, ptr %9, align 4, !tbaa !11
  store i32 %49, ptr %4, align 4
  store i32 1, ptr %10, align 4
  br label %56

50:                                               ; preds = %38
  br label %51

51:                                               ; preds = %50
  br label %52

52:                                               ; preds = %51
  br label %53

53:                                               ; preds = %52
  br label %54

54:                                               ; preds = %53
  br label %55

55:                                               ; preds = %54, %35
  store i32 0, ptr %4, align 4
  store i32 1, ptr %10, align 4
  br label %56

56:                                               ; preds = %55, %48, %25
  call void @llvm.lifetime.end.p0(i64 4, ptr %9) #8
  call void @llvm.lifetime.end.p0(i64 8, ptr %8) #8
  %57 = load i32, ptr %4, align 4
  ret i32 %57
}