; Function Attrs: nounwind uwtable
define internal fastcc range(i32 -1094995529, 1) i32 @cbs_av1_write_read_tx_mode(ptr noundef readonly captures(none) %0, ptr noundef %1, ptr noundef readonly captures(none) %2) unnamed_addr #0 {
  %4 = getelementptr inbounds nuw i8, ptr %0, i64 16
  %5 = load ptr, ptr %4, align 8, !tbaa !33
  %6 = getelementptr inbounds nuw i8, ptr %5, i64 100
  %7 = load i32, ptr %6, align 4, !tbaa !269
  %.not = icmp eq i32 %7, 0
  %8 = getelementptr inbounds nuw i8, ptr %2, i64 781
  %9 = load i8, ptr %8, align 1, !tbaa !375
  br i1 %.not, label %14, label %10

10:                                               ; preds = %3
  %.not11 = icmp eq i8 %9, 0
  br i1 %.not11, label %18, label %11

11:                                               ; preds = %10
  %12 = load ptr, ptr %0, align 8, !tbaa !19
  %13 = zext i8 %9 to i64
  tail call void (ptr, i32, ptr, ...) @av_log(ptr noundef %12, i32 noundef 16, ptr noundef nonnull @.str.317, ptr noundef nonnull @.str.211, i64 noundef %13, i64 noundef 0) #8
  br label %19

14:                                               ; preds = %3
  %15 = zext i8 %9 to i32
  %16 = tail call fastcc i32 @cbs_av1_write_increment(ptr noundef nonnull %0, ptr noundef %1, i32 noundef 1, i32 noundef 2, ptr noundef nonnull @.str.211, i32 noundef %15)
  %17 = icmp slt i32 %16, 0
  br i1 %17, label %19, label %18

18:                                               ; preds = %14, %10
  br label %19

19:                                               ; preds = %14, %18, %11
  %.0 = phi i32 [ -1094995529, %11 ], [ 0, %18 ], [ %16, %14 ]
  ret i32 %.0
}